; Function Attrs: nounwind uwtable
define hidden noundef ptr @Wayland_data_source_create(ptr noundef readonly captures(address_is_null) %0) local_unnamed_addr #0 {
  %.not = icmp eq ptr %0, null
  br i1 %.not, label %5, label %2

2:                                                ; preds = %1
  %3 = getelementptr inbounds nuw i8, ptr %0, i64 1656
  %4 = load ptr, ptr %3, align 8
  %.not20 = icmp eq ptr %4, null
  br i1 %.not20, label %5, label %7

5:                                                ; preds = %2, %1
  %6 = tail call zeroext i1 (ptr, ...) @SDL_SetError_REAL(ptr noundef nonnull @.str.1) #12
  br label %28

7:                                                ; preds = %2
  %8 = getelementptr inbounds nuw i8, ptr %4, i64 96
  %9 = load ptr, ptr %8, align 8
  %.not21 = icmp eq ptr %9, null
  br i1 %.not21, label %.thread, label %10

10:                                               ; preds = %7
  %11 = load ptr, ptr @WAYLAND_wl_proxy_marshal_flags, align 8
  %12 = load ptr, ptr @WAYLAND_wl_data_source_interface, align 8
  %13 = load ptr, ptr @WAYLAND_wl_proxy_get_version, align 8
  %14 = tail call i32 %13(ptr noundef nonnull %9) #12
  %15 = tail call ptr (ptr, i32, ptr, i32, i32, ...) %11(ptr noundef nonnull %9, i32 noundef 0, ptr noundef %12, i32 noundef %14, i32 noundef 0, ptr noundef null) #12
  %.not22 = icmp eq ptr %15, null
  br i1 %.not22, label %.thread, label %17

.thread:                                          ; preds = %7, %10
  %16 = tail call zeroext i1 (ptr, ...) @SDL_SetError_REAL(ptr noundef nonnull @.str.2) #12
  br label %28

17:                                               ; preds = %10
  %18 = tail call noalias dereferenceable_or_null(40) ptr @SDL_calloc_REAL(i64 noundef 1, i64 noundef 40) #14
  %.not23 = icmp eq ptr %18, null
  br i1 %.not23, label %19, label %24

19:                                               ; preds = %17
  %20 = load ptr, ptr @WAYLAND_wl_proxy_marshal_flags, align 8
  %21 = load ptr, ptr @WAYLAND_wl_proxy_get_version, align 8
  %22 = tail call i32 %21(ptr noundef nonnull %15) #12
  %23 = tail call ptr (ptr, i32, ptr, i32, i32, ...) %20(ptr noundef nonnull %15, i32 noundef 1, ptr noundef null, i32 noundef %22, i32 noundef 1) #12
  br label %28

24:                                               ; preds = %17
  store ptr %15, ptr %18, align 8
  %25 = load ptr, ptr @WAYLAND_wl_proxy_set_user_data, align 8
  tail call void %25(ptr noundef nonnull %15, ptr noundef nonnull %18) #12
  %26 = load ptr, ptr @WAYLAND_wl_proxy_add_listener, align 8
  %27 = tail call i32 %26(ptr noundef nonnull %15, ptr noundef nonnull @data_source_listener, ptr noundef nonnull %18) #12
  br label %28

28:                                               ; preds = %.thread, %24, %19, %5
  %.015 = phi ptr [ %18, %24 ], [ null, %19 ], [ null, %.thread ], [ null, %5 ]
  ret ptr %.015
}